target datalayout = "e-m:e-p270:32:32-p271:32:32-p272:64:64-i64:64-i128:128-f80:128-n8:16:32:64-S128"
target triple = "x86_64-pc-linux-gnu"

%struct.HuffmanTree = type { i32, i32, i32, i32 }

; Function Attrs: nounwind uwtable
define internal void @SetBitDepths(ptr noundef %0, ptr noundef %1, ptr noundef %2, i32 noundef %3) #0 {
  %5 = alloca ptr, align 8
  %6 = alloca ptr, align 8
  %7 = alloca ptr, align 8
  %8 = alloca i32, align 4
  store ptr %0, ptr %5, align 8, !tbaa !3
  store ptr %1, ptr %6, align 8, !tbaa !3
  store ptr %2, ptr %7, align 8, !tbaa !27
  store i32 %3, ptr %8, align 4, !tbaa !7
  %9 = load ptr, ptr %5, align 8, !tbaa !3
  %10 = getelementptr inbounds nuw %struct.HuffmanTree, ptr %9, i32 0, i32 2
  %11 = load i32, ptr %10, align 4, !tbaa !37
  %12 = icmp sge i32 %11, 0
  br i1 %12, label %13, label %34

13:                                               ; preds = %4
  %14 = load ptr, ptr %6, align 8, !tbaa !3
  %15 = load ptr, ptr %5, align 8, !tbaa !3
  %16 = getelementptr inbounds nuw %struct.HuffmanTree, ptr %15, i32 0, i32 2
  %17 = load i32, ptr %16, align 4, !tbaa !37
  %18 = sext i32 %17 to i64
  %19 = getelementptr inbounds %struct.HuffmanTree, ptr %14, i64 %18
  %20 = load ptr, ptr %6, align 8, !tbaa !3
  %21 = load ptr, ptr %7, align 8, !tbaa !27
  %22 = load i32, ptr %8, align 4, !tbaa !7
  %23 = add nsw i32 %22, 1
  call void @SetBitDepths(ptr noundef %19, ptr noundef %20, ptr noundef %21, i32 noundef %23)
  %24 = load ptr, ptr %6, align 8, !tbaa !3
  %25 = load ptr, ptr %5, align 8, !tbaa !3
  %26 = getelementptr inbounds nuw %struct.HuffmanTree, ptr %25, i32 0, i32 3
  %27 = load i32, ptr %26, align 4, !tbaa !38
  %28 = sext i32 %27 to i64
  %29 = getelementptr inbounds %struct.HuffmanTree, ptr %24, i64 %28
  %30 = load ptr, ptr %6, align 8, !tbaa !3
  %31 = load ptr, ptr %7, align 8, !tbaa !27
  %32 = load i32, ptr %8, align 4, !tbaa !7
  %33 = add nsw i32 %32, 1
  call void @SetBitDepths(ptr noundef %29, ptr noundef %30, ptr noundef %31, i32 noundef %33)
  br label %43

34:                                               ; preds = %4
  %35 = load i32, ptr %8, align 4, !tbaa !7
  %36 = trunc i32 %35 to i8
  %37 = load ptr, ptr %7, align 8, !tbaa !27
  %38 = load ptr, ptr %5, align 8, !tbaa !3
  %39 = getelementptr inbounds nuw %struct.HuffmanTree, ptr %38, i32 0, i32 1
  %40 = load i32, ptr %39, align 4, !tbaa !36
  %41 = sext i32 %40 to i64
  %42 = getelementptr inbounds i8, ptr %37, i64 %41
  store i8 %36, ptr %42, align 1, !tbaa !14
  br label %43

43:                                               ; preds = %34, %13
  ret void
}