; Function Attrs: nofree nosync nounwind memory(argmem: readwrite) uwtable
define internal fastcc void @SetBitDepths(ptr noundef readonly captures(none) %0, ptr noundef readonly captures(none) %1, ptr noundef writeonly captures(none) %2, i32 noundef %3) unnamed_addr #8 {
  %5 = getelementptr inbounds nuw i8, ptr %0, i64 8
  %6 = load i32, ptr %5, align 4, !tbaa !29
  %7 = icmp sgt i32 %6, -1
  br i1 %7, label %tailrecurse, label %tailrecurse._crit_edge

tailrecurse:                                      ; preds = %4, %tailrecurse
  %8 = phi i32 [ %17, %tailrecurse ], [ %6, %4 ]
  %.tr1517 = phi i32 [ %11, %tailrecurse ], [ %3, %4 ]
  %.tr16 = phi ptr [ %15, %tailrecurse ], [ %0, %4 ]
  %9 = zext nneg i32 %8 to i64
  %10 = getelementptr inbounds nuw %struct.HuffmanTree, ptr %1, i64 %9
  %11 = add nsw i32 %.tr1517, 1
  tail call fastcc void @SetBitDepths(ptr noundef %10, ptr noundef %1, ptr noundef %2, i32 noundef %11)
  %12 = getelementptr inbounds nuw i8, ptr %.tr16, i64 12
  %13 = load i32, ptr %12, align 4, !tbaa !30
  %14 = sext i32 %13 to i64
  %15 = getelementptr inbounds %struct.HuffmanTree, ptr %1, i64 %14
  %16 = getelementptr inbounds nuw i8, ptr %15, i64 8
  %17 = load i32, ptr %16, align 4, !tbaa !29
  %18 = icmp sgt i32 %17, -1
  br i1 %18, label %tailrecurse, label %tailrecurse._crit_edge

tailrecurse._crit_edge:                           ; preds = %tailrecurse, %4
  %.tr.lcssa = phi ptr [ %0, %4 ], [ %15, %tailrecurse ]
  %.tr15.lcssa = phi i32 [ %3, %4 ], [ %11, %tailrecurse ]
  %19 = trunc i32 %.tr15.lcssa to i8
  %20 = getelementptr inbounds nuw i8, ptr %.tr.lcssa, i64 4
  %21 = load i32, ptr %20, align 4, !tbaa !28
  %22 = sext i32 %21 to i64
  %23 = getelementptr inbounds i8, ptr %2, i64 %22
  store i8 %19, ptr %23, align 1, !tbaa !12
  ret void
}